target datalayout = "e-m:e-p270:32:32-p271:32:32-p272:64:64-i64:64-i128:128-f80:128-n8:16:32:64-S128"
target triple = "x86_64-pc-linux-gnu"

%struct.SRBRoot = type { ptr, ptr, i32, i32, i8, i8, i8, ptr, ptr, i32, i32, i32, i32, i32, %"class.icu_77::UnicodeString", i32, ptr, i32, i32, i32, ptr }
%"class.icu_77::UnicodeString" = type { %"class.icu_77::Replaceable", %"union.icu_77::UnicodeString::StackBufferOrFields" }
%"class.icu_77::Replaceable" = type { %"class.icu_77::UObject" }
%"class.icu_77::UObject" = type { ptr }
%"union.icu_77::UnicodeString::StackBufferOrFields" = type { %struct.anon.0, [32 x i8] }
%struct.anon.0 = type { i16, i32, i32, ptr }

; Function Attrs: inlinehint mustprogress nounwind uwtable
define internal noundef signext i8 @_ZL9U_FAILURE10UErrorCode(i32 noundef %0) #9 {
  %2 = alloca i32, align 4
  store i32 %0, ptr %2, align 4, !tbaa !45
  %3 = load i32, ptr %2, align 4, !tbaa !45
  %4 = icmp sgt i32 %3, 0
  %5 = zext i1 %4 to i8
  ret i8 %5
}

; Function Attrs: mustprogress uwtable
define dso_local void @_ZN7SRBRoot9setLocaleEPDsR10UErrorCode(ptr noundef nonnull align 8 dereferenceable(176) %0, ptr noundef %1, ptr noundef nonnull align 4 dereferenceable(4) %2) #5 align 2 {
  %4 = alloca ptr, align 8
  %5 = alloca ptr, align 8
  %6 = alloca ptr, align 8
  store ptr %0, ptr %4, align 8, !tbaa !39
  store ptr %1, ptr %5, align 8, !tbaa !73
  store ptr %2, ptr %6, align 8, !tbaa !44
  %7 = load ptr, ptr %4, align 8
  %8 = load ptr, ptr %6, align 8, !tbaa !44
  %9 = load i32, ptr %8, align 4, !tbaa !45
  %10 = call noundef signext i8 @_ZL9U_FAILURE10UErrorCode(i32 noundef %9)
  %11 = icmp ne i8 %10, 0
  br i1 %11, label %12, label %13

12:                                               ; preds = %3
  br label %35

13:                                               ; preds = %3
  %14 = getelementptr inbounds nuw %struct.SRBRoot, ptr %7, i32 0, i32 1
  %15 = load ptr, ptr %14, align 8, !tbaa !147
  call void @uprv_free_77(ptr noundef %15)
  %16 = load ptr, ptr %5, align 8, !tbaa !73
  %17 = call i32 @u_strlen_77(ptr noundef %16)
  %18 = add nsw i32 %17, 1
  %19 = sext i32 %18 to i64
  %20 = mul i64 1, %19
  %21 = call noalias ptr @uprv_malloc_77(i64 noundef %20) #25
  %22 = getelementptr inbounds nuw %struct.SRBRoot, ptr %7, i32 0, i32 1
  store ptr %21, ptr %22, align 8, !tbaa !147
  %23 = getelementptr inbounds nuw %struct.SRBRoot, ptr %7, i32 0, i32 1
  %24 = load ptr, ptr %23, align 8, !tbaa !147
  %25 = icmp eq ptr %24, null
  br i1 %25, label %26, label %28

26:                                               ; preds = %13
  %27 = load ptr, ptr %6, align 8, !tbaa !44
  store i32 7, ptr %27, align 4, !tbaa !45
  br label %35

28:                                               ; preds = %13
  %29 = load ptr, ptr %5, align 8, !tbaa !73
  %30 = getelementptr inbounds nuw %struct.SRBRoot, ptr %7, i32 0, i32 1
  %31 = load ptr, ptr %30, align 8, !tbaa !147
  %32 = load ptr, ptr %5, align 8, !tbaa !73
  %33 = call i32 @u_strlen_77(ptr noundef %32)
  %34 = add nsw i32 %33, 1
  call void @u_UCharsToChars_77(ptr noundef %29, ptr noundef %31, i32 noundef %34)
  br label %35

35:                                               ; preds = %28, %26, %12
  ret void
}