; Function Attrs: mustprogress uwtable
define dso_local void @_ZN7SRBRoot9setLocaleEPDsR10UErrorCode(ptr noundef nonnull align 8 captures(none) dereferenceable(176) %0, ptr noundef %1, ptr noundef nonnull align 4 captures(none) dereferenceable(4) %2) local_unnamed_addr #7 align 2 {
  %4 = load i32, ptr %2, align 4, !tbaa !22
  %5 = icmp slt i32 %4, 1
  br i1 %5, label %6, label %18

6:                                                ; preds = %3
  %7 = getelementptr inbounds nuw i8, ptr %0, i64 8
  %8 = load ptr, ptr %7, align 8, !tbaa !108
  tail call void @uprv_free_77(ptr noundef %8)
  %9 = tail call i32 @u_strlen_77(ptr noundef %1)
  %10 = add nsw i32 %9, 1
  %11 = sext i32 %10 to i64
  %12 = tail call noalias ptr @uprv_malloc_77(i64 noundef %11) #38
  store ptr %12, ptr %7, align 8, !tbaa !108
  %13 = icmp eq ptr %12, null
  br i1 %13, label %14, label %15

14:                                               ; preds = %6
  store i32 7, ptr %2, align 4, !tbaa !22
  br label %18

15:                                               ; preds = %6
  %16 = tail call i32 @u_strlen_77(ptr noundef %1)
  %17 = add nsw i32 %16, 1
  tail call void @u_UCharsToChars_77(ptr noundef %1, ptr noundef nonnull %12, i32 noundef %17)
  br label %18

18:                                               ; preds = %3, %15, %14
  ret void
}